target datalayout = "e-m:e-p270:32:32-p271:32:32-p272:64:64-i64:64-i128:128-f80:128-n8:16:32:64-S128"
target triple = "x86_64-pc-linux-gnu"

; Function Attrs: mustprogress uwtable
define internal void @"_ZNSt14_Function_base13_Base_managerIZNK7rocksdb23BlockCacheTraceAnalyzer13WriteSkewnessERKNSt7__cxx1112basic_stringIcSt11char_traitsIcESaIcEEERKSt6vectorImSaImEENS1_9TraceTypeEE3$_0E9_M_createIRKSH_EEvRSt9_Any_dataOT_St17integral_constantIbLb0EE"(ptr noundef nonnull align 8 dereferenceable(16) %0, ptr noundef nonnull align 8 dereferenceable(40) %1) #8 align 2 {
  %3 = alloca ptr, align 8
  %4 = alloca ptr, align 8
  store ptr %0, ptr %3, align 8, !tbaa !1738
  store ptr %1, ptr %4, align 8, !tbaa !22
  %5 = call noalias noundef nonnull ptr @_Znwm(i64 noundef 40) #26
  %6 = load ptr, ptr %4, align 8, !tbaa !22
  call void @llvm.memcpy.p0.p0.i64(ptr align 16 %5, ptr align 8 %6, i64 40, i1 false), !tbaa.struct !1742
  %7 = load ptr, ptr %3, align 8, !tbaa !1738
  %8 = call noundef nonnull align 8 dereferenceable(8) ptr @"_ZNSt9_Any_data9_M_accessIPZNK7rocksdb23BlockCacheTraceAnalyzer13WriteSkewnessERKNSt7__cxx1112basic_stringIcSt11char_traitsIcESaIcEEERKSt6vectorImSaImEENS1_9TraceTypeEE3$_0EERT_v"(ptr noundef nonnull align 8 dereferenceable(16) %7) #7
  store ptr %5, ptr %8, align 8, !tbaa !22
  ret void
}

; Function Attrs: mustprogress nounwind uwtable
define linkonce_odr noundef ptr @_ZNKSt9_Any_data9_M_accessEv(ptr noundef nonnull align 8 dereferenceable(16) %0) #4 comdat align 2 {
  %2 = alloca ptr, align 8
  store ptr %0, ptr %2, align 8, !tbaa !1738
  %3 = load ptr, ptr %2, align 8
  %4 = getelementptr inbounds [16 x i8], ptr %3, i64 0, i64 0
  ret ptr %4
}

; Function Attrs: mustprogress nounwind uwtable
define internal void @"_ZNSt14_Function_base13_Base_managerIZNK7rocksdb23BlockCacheTraceAnalyzer13WriteSkewnessERKNSt7__cxx1112basic_stringIcSt11char_traitsIcESaIcEEERKSt6vectorImSaImEENS1_9TraceTypeEE3$_0E10_M_destroyERSt9_Any_dataSt17integral_constantIbLb0EE"(ptr noundef nonnull align 8 dereferenceable(16) %0) #4 align 2 {
  %2 = alloca ptr, align 8
  store ptr %0, ptr %2, align 8, !tbaa !1738
  %3 = load ptr, ptr %2, align 8, !tbaa !1738
  %4 = call noundef nonnull align 8 dereferenceable(8) ptr @"_ZNSt9_Any_data9_M_accessIPZNK7rocksdb23BlockCacheTraceAnalyzer13WriteSkewnessERKNSt7__cxx1112basic_stringIcSt11char_traitsIcESaIcEEERKSt6vectorImSaImEENS1_9TraceTypeEE3$_0EERT_v"(ptr noundef nonnull align 8 dereferenceable(16) %3) #7
  %5 = load ptr, ptr %4, align 8, !tbaa !22
  %6 = icmp eq ptr %5, null
  br i1 %6, label %8, label %7

7:                                                ; preds = %1
  call void @_ZdlPvm(ptr noundef %5, i64 noundef 40) #27
  br label %8

8:                                                ; preds = %7, %1
  ret void
}

; Function Attrs: mustprogress uwtable
define internal void @"_ZNSt14_Function_base13_Base_managerIZNK7rocksdb23BlockCacheTraceAnalyzer13WriteSkewnessERKNSt7__cxx1112basic_stringIcSt11char_traitsIcESaIcEEERKSt6vectorImSaImEENS1_9TraceTypeEE3$_0E15_M_init_functorIRKSH_EEvRSt9_Any_dataOT_"(ptr noundef nonnull align 8 dereferenceable(16) %0, ptr noundef nonnull align 8 dereferenceable(40) %1) #8 align 2 {
  %3 = alloca ptr, align 8
  %4 = alloca ptr, align 8
  store ptr %0, ptr %3, align 8, !tbaa !1738
  store ptr %1, ptr %4, align 8, !tbaa !22
  %5 = load ptr, ptr %3, align 8, !tbaa !1738
  %6 = load ptr, ptr %4, align 8, !tbaa !22
  call void @"_ZNSt14_Function_base13_Base_managerIZNK7rocksdb23BlockCacheTraceAnalyzer13WriteSkewnessERKNSt7__cxx1112basic_stringIcSt11char_traitsIcESaIcEEERKSt6vectorImSaImEENS1_9TraceTypeEE3$_0E9_M_createIRKSH_EEvRSt9_Any_dataOT_St17integral_constantIbLb0EE"(ptr noundef nonnull align 8 dereferenceable(16) %5, ptr noundef nonnull align 8 dereferenceable(40) %6)
  ret void
}

; Function Attrs: mustprogress nounwind uwtable
define linkonce_odr noundef nonnull align 8 dereferenceable(8) ptr @_ZNSt9_Any_data9_M_accessIPKSt9type_infoEERT_v(ptr noundef nonnull align 8 dereferenceable(16) %0) #4 comdat align 2 {
  %2 = alloca ptr, align 8
  store ptr %0, ptr %2, align 8, !tbaa !1738
  %3 = load ptr, ptr %2, align 8
  %4 = call noundef ptr @_ZNSt9_Any_data9_M_accessEv(ptr noundef nonnull align 8 dereferenceable(16) %3) #7
  ret ptr %4
}

; Function Attrs: mustprogress nounwind uwtable
define linkonce_odr noundef ptr @_ZNSt9_Any_data9_M_accessEv(ptr noundef nonnull align 8 dereferenceable(16) %0) #4 comdat align 2 {
  %2 = alloca ptr, align 8
  store ptr %0, ptr %2, align 8, !tbaa !1738
  %3 = load ptr, ptr %2, align 8
  %4 = getelementptr inbounds [16 x i8], ptr %3, i64 0, i64 0
  ret ptr %4
}

; Function Attrs: mustprogress nounwind uwtable
define internal noundef nonnull align 8 dereferenceable(8) ptr @"_ZNKSt9_Any_data9_M_accessIPZNK7rocksdb23BlockCacheTraceAnalyzer13WriteSkewnessERKNSt7__cxx1112basic_stringIcSt11char_traitsIcESaIcEEERKSt6vectorImSaImEENS1_9TraceTypeEE3$_0EERKT_v"(ptr noundef nonnull align 8 dereferenceable(16) %0) #4 align 2 {
  %2 = alloca ptr, align 8
  store ptr %0, ptr %2, align 8, !tbaa !1738
  %3 = load ptr, ptr %2, align 8
  %4 = call noundef ptr @_ZNKSt9_Any_data9_M_accessEv(ptr noundef nonnull align 8 dereferenceable(16) %3) #7
  ret ptr %4
}

; Function Attrs: mustprogress uwtable
define internal noundef zeroext i1 @"_ZNSt14_Function_base13_Base_managerIZNK7rocksdb23BlockCacheTraceAnalyzer13WriteSkewnessERKNSt7__cxx1112basic_stringIcSt11char_traitsIcESaIcEEERKSt6vectorImSaImEENS1_9TraceTypeEE3$_0E10_M_managerERSt9_Any_dataRKSJ_St18_Manager_operation"(ptr noundef nonnull align 8 dereferenceable(16) %0, ptr noundef nonnull align 8 dereferenceable(16) %1, i32 noundef %2) #8 align 2 {
  %4 = alloca ptr, align 8
  %5 = alloca ptr, align 8
  %6 = alloca i32, align 4
  store ptr %0, ptr %4, align 8, !tbaa !1738
  store ptr %1, ptr %5, align 8, !tbaa !1738
  store i32 %2, ptr %6, align 4, !tbaa !1740
  %7 = load i32, ptr %6, align 4, !tbaa !1740
  switch i32 %7, label %22 [
    i32 0, label %8
    i32 1, label %11
    i32 2, label %16
    i32 3, label %20
  ]

8:                                                ; preds = %3
  %9 = load ptr, ptr %4, align 8, !tbaa !1738
  %10 = call noundef nonnull align 8 dereferenceable(8) ptr @_ZNSt9_Any_data9_M_accessIPKSt9type_infoEERT_v(ptr noundef nonnull align 8 dereferenceable(16) %9) #7
  store ptr null, ptr %10, align 8, !tbaa !1758
  br label %22

11:                                               ; preds = %3
  %12 = load ptr, ptr %5, align 8, !tbaa !1738
  %13 = call noundef ptr @"_ZNSt14_Function_base13_Base_managerIZNK7rocksdb23BlockCacheTraceAnalyzer13WriteSkewnessERKNSt7__cxx1112basic_stringIcSt11char_traitsIcESaIcEEERKSt6vectorImSaImEENS1_9TraceTypeEE3$_0E14_M_get_pointerERKSt9_Any_data"(ptr noundef nonnull align 8 dereferenceable(16) %12) #7
  %14 = load ptr, ptr %4, align 8, !tbaa !1738
  %15 = call noundef nonnull align 8 dereferenceable(8) ptr @"_ZNSt9_Any_data9_M_accessIPZNK7rocksdb23BlockCacheTraceAnalyzer13WriteSkewnessERKNSt7__cxx1112basic_stringIcSt11char_traitsIcESaIcEEERKSt6vectorImSaImEENS1_9TraceTypeEE3$_0EERT_v"(ptr noundef nonnull align 8 dereferenceable(16) %14) #7
  store ptr %13, ptr %15, align 8, !tbaa !22
  br label %22

16:                                               ; preds = %3
  %17 = load ptr, ptr %4, align 8, !tbaa !1738
  %18 = load ptr, ptr %5, align 8, !tbaa !1738
  %19 = call noundef ptr @"_ZNSt14_Function_base13_Base_managerIZNK7rocksdb23BlockCacheTraceAnalyzer13WriteSkewnessERKNSt7__cxx1112basic_stringIcSt11char_traitsIcESaIcEEERKSt6vectorImSaImEENS1_9TraceTypeEE3$_0E14_M_get_pointerERKSt9_Any_data"(ptr noundef nonnull align 8 dereferenceable(16) %18) #7
  call void @"_ZNSt14_Function_base13_Base_managerIZNK7rocksdb23BlockCacheTraceAnalyzer13WriteSkewnessERKNSt7__cxx1112basic_stringIcSt11char_traitsIcESaIcEEERKSt6vectorImSaImEENS1_9TraceTypeEE3$_0E15_M_init_functorIRKSH_EEvRSt9_Any_dataOT_"(ptr noundef nonnull align 8 dereferenceable(16) %17, ptr noundef nonnull align 8 dereferenceable(40) %19)
  br label %22

20:                                               ; preds = %3
  %21 = load ptr, ptr %4, align 8, !tbaa !1738
  call void @"_ZNSt14_Function_base13_Base_managerIZNK7rocksdb23BlockCacheTraceAnalyzer13WriteSkewnessERKNSt7__cxx1112basic_stringIcSt11char_traitsIcESaIcEEERKSt6vectorImSaImEENS1_9TraceTypeEE3$_0E10_M_destroyERSt9_Any_dataSt17integral_constantIbLb0EE"(ptr noundef nonnull align 8 dereferenceable(16) %21)
  br label %22

22:                                               ; preds = %3, %20, %16, %11, %8
  ret i1 false
}

; Function Attrs: mustprogress nounwind uwtable
define internal noundef nonnull align 8 dereferenceable(8) ptr @"_ZNSt9_Any_data9_M_accessIPZNK7rocksdb23BlockCacheTraceAnalyzer13WriteSkewnessERKNSt7__cxx1112basic_stringIcSt11char_traitsIcESaIcEEERKSt6vectorImSaImEENS1_9TraceTypeEE3$_0EERT_v"(ptr noundef nonnull align 8 dereferenceable(16) %0) #4 align 2 {
  %2 = alloca ptr, align 8
  store ptr %0, ptr %2, align 8, !tbaa !1738
  %3 = load ptr, ptr %2, align 8
  %4 = call noundef ptr @_ZNSt9_Any_data9_M_accessEv(ptr noundef nonnull align 8 dereferenceable(16) %3) #7
  ret ptr %4
}

; Function Attrs: mustprogress nounwind uwtable
define internal noundef ptr @"_ZNSt14_Function_base13_Base_managerIZNK7rocksdb23BlockCacheTraceAnalyzer13WriteSkewnessERKNSt7__cxx1112basic_stringIcSt11char_traitsIcESaIcEEERKSt6vectorImSaImEENS1_9TraceTypeEE3$_0E14_M_get_pointerERKSt9_Any_data"(ptr noundef nonnull align 8 dereferenceable(16) %0) #4 align 2 {
  %2 = alloca ptr, align 8
  store ptr %0, ptr %2, align 8, !tbaa !1738
  %3 = load ptr, ptr %2, align 8, !tbaa !1738
  %4 = call noundef nonnull align 8 dereferenceable(8) ptr @"_ZNKSt9_Any_data9_M_accessIPZNK7rocksdb23BlockCacheTraceAnalyzer13WriteSkewnessERKNSt7__cxx1112basic_stringIcSt11char_traitsIcESaIcEEERKSt6vectorImSaImEENS1_9TraceTypeEE3$_0EERKT_v"(ptr noundef nonnull align 8 dereferenceable(16) %3) #7
  %5 = load ptr, ptr %4, align 8, !tbaa !22
  ret ptr %5
}

; Function Attrs: mustprogress uwtable
define internal noundef zeroext i1 @"_ZNSt17_Function_handlerIFvRKNSt7__cxx1112basic_stringIcSt11char_traitsIcESaIcEEEmjN7rocksdb9TraceTypeES7_mRKNS8_15BlockAccessInfoEEZNKS8_23BlockCacheTraceAnalyzer13WriteSkewnessES7_RKSt6vectorImSaImEES9_E3$_0E10_M_managerERSt9_Any_dataRKSM_St18_Manager_operation"(ptr noundef nonnull align 8 dereferenceable(16) %0, ptr noundef nonnull align 8 dereferenceable(16) %1, i32 noundef %2) #8 align 2 {
  %4 = alloca ptr, align 8
  %5 = alloca ptr, align 8
  %6 = alloca i32, align 4
  store ptr %0, ptr %4, align 8, !tbaa !1738
  store ptr %1, ptr %5, align 8, !tbaa !1738
  store i32 %2, ptr %6, align 4, !tbaa !1740
  %7 = load i32, ptr %6, align 4, !tbaa !1740
  switch i32 %7, label %13 [
    i32 1, label %8
  ]

8:                                                ; preds = %3
  %9 = load ptr, ptr %5, align 8, !tbaa !1738
  %10 = call noundef ptr @"_ZNSt14_Function_base13_Base_managerIZNK7rocksdb23BlockCacheTraceAnalyzer13WriteSkewnessERKNSt7__cxx1112basic_stringIcSt11char_traitsIcESaIcEEERKSt6vectorImSaImEENS1_9TraceTypeEE3$_0E14_M_get_pointerERKSt9_Any_data"(ptr noundef nonnull align 8 dereferenceable(16) %9) #7
  %11 = load ptr, ptr %4, align 8, !tbaa !1738
  %12 = call noundef nonnull align 8 dereferenceable(8) ptr @"_ZNSt9_Any_data9_M_accessIPZNK7rocksdb23BlockCacheTraceAnalyzer13WriteSkewnessERKNSt7__cxx1112basic_stringIcSt11char_traitsIcESaIcEEERKSt6vectorImSaImEENS1_9TraceTypeEE3$_0EERT_v"(ptr noundef nonnull align 8 dereferenceable(16) %11) #7
  store ptr %10, ptr %12, align 8, !tbaa !22
  br label %18

13:                                               ; preds = %3
  %14 = load ptr, ptr %4, align 8, !tbaa !1738
  %15 = load ptr, ptr %5, align 8, !tbaa !1738
  %16 = load i32, ptr %6, align 4, !tbaa !1740
  %17 = call noundef zeroext i1 @"_ZNSt14_Function_base13_Base_managerIZNK7rocksdb23BlockCacheTraceAnalyzer13WriteSkewnessERKNSt7__cxx1112basic_stringIcSt11char_traitsIcESaIcEEERKSt6vectorImSaImEENS1_9TraceTypeEE3$_0E10_M_managerERSt9_Any_dataRKSJ_St18_Manager_operation"(ptr noundef nonnull align 8 dereferenceable(16) %14, ptr noundef nonnull align 8 dereferenceable(16) %15, i32 noundef %16)
  br label %18

18:                                               ; preds = %13, %8
  ret i1 false
}